target datalayout = "e-m:e-p270:32:32-p271:32:32-p272:64:64-i64:64-i128:128-f80:128-n8:16:32:64-S128"
target triple = "x86_64-pc-linux-gnu"

%struct.st_hash_type = type { ptr, ptr }
%struct.st_str_end_key = type { ptr, ptr }
%struct.re_pattern_buffer = type { ptr, ptr, ptr, i32, i32, ptr, ptr, i32, i32, i32, i32, i32, i32, i32, i32, i32, ptr, ptr, i32, ptr, i32, ptr, i32, i32, i32, i32, i32, i32, ptr, ptr, [256 x i8], i32, i32, i32, ptr }
%union.OnigValue = type { %struct.anon }
%struct.anon = type { ptr, ptr }
%struct.CalloutListEntry = type { i32, i32, i32, i32, ptr, ptr, i32, ptr, ptr, %union.anon }
%union.anon = type { %struct.anon.1 }
%struct.anon.1 = type { i32, i32, [4 x i32], [4 x %union.OnigValue] }
%struct.RegexExt = type { ptr, ptr, ptr, i32, i32, ptr }
%struct.ParseEnv = type { i32, i32, ptr, ptr, i32, i32, i32, ptr, ptr, ptr, ptr, ptr, i32, i32, i32, i32, [8 x %struct.MemEnv], ptr, i32, i32, i32, i32, ptr, ptr, i32, i32 }
%struct.MemEnv = type { ptr, ptr }

@onig_st_init_strend_table_with_size.hashType = internal global %struct.st_hash_type { ptr @str_end_cmp, ptr @str_end_hash }, align 8

; Function Attrs: nounwind uwtable
define dso_local i32 @onig_st_lookup_strend(ptr noundef %0, ptr noundef %1, ptr noundef %2, ptr noundef %3) #0 {
  %5 = alloca ptr, align 8
  %6 = alloca ptr, align 8
  %7 = alloca ptr, align 8
  %8 = alloca ptr, align 8
  %9 = alloca %struct.st_str_end_key, align 8
  store ptr %0, ptr %5, align 8, !tbaa !9
  store ptr %1, ptr %6, align 8, !tbaa !4
  store ptr %2, ptr %7, align 8, !tbaa !4
  store ptr %3, ptr %8, align 8, !tbaa !20
  call void @llvm.lifetime.start.p0(i64 16, ptr %9) #8
  %10 = load ptr, ptr %6, align 8, !tbaa !4
  %11 = getelementptr inbounds nuw %struct.st_str_end_key, ptr %9, i32 0, i32 0
  store ptr %10, ptr %11, align 8, !tbaa !17
  %12 = load ptr, ptr %7, align 8, !tbaa !4
  %13 = getelementptr inbounds nuw %struct.st_str_end_key, ptr %9, i32 0, i32 1
  store ptr %12, ptr %13, align 8, !tbaa !15
  %14 = load ptr, ptr %5, align 8, !tbaa !9
  %15 = ptrtoint ptr %9 to i64
  %16 = load ptr, ptr %8, align 8, !tbaa !20
  %17 = call i32 @onig_st_lookup(ptr noundef %14, i64 noundef %15, ptr noundef %16)
  call void @llvm.lifetime.end.p0(i64 16, ptr %9) #8
  ret i32 %17
}

; Function Attrs: nounwind uwtable
define dso_local ptr @onig_st_init_strend_table_with_size(i32 noundef %0) #0 {
  %2 = alloca i32, align 4
  store i32 %0, ptr %2, align 4, !tbaa !10
  %3 = load i32, ptr %2, align 4, !tbaa !10
  %4 = call ptr @onig_st_init_table_with_size(ptr noundef @onig_st_init_strend_table_with_size.hashType, i32 noundef %3)
  ret ptr %4
}

; Function Attrs: nounwind uwtable
define dso_local i32 @onig_st_insert_strend(ptr noundef %0, ptr noundef %1, ptr noundef %2, i64 noundef %3) #0 {
  %5 = alloca i32, align 4
  %6 = alloca ptr, align 8
  %7 = alloca ptr, align 8
  %8 = alloca ptr, align 8
  %9 = alloca i64, align 8
  %10 = alloca ptr, align 8
  %11 = alloca i32, align 4
  %12 = alloca i32, align 4
  store ptr %0, ptr %6, align 8, !tbaa !9
  store ptr %1, ptr %7, align 8, !tbaa !4
  store ptr %2, ptr %8, align 8, !tbaa !4
  store i64 %3, ptr %9, align 8, !tbaa !22
  call void @llvm.lifetime.start.p0(i64 8, ptr %10) #8
  call void @llvm.lifetime.start.p0(i64 4, ptr %11) #8
  %13 = call noalias ptr @malloc(i64 noundef 16) #9
  store ptr %13, ptr %10, align 8, !tbaa !9
  %14 = load ptr, ptr %10, align 8, !tbaa !9
  %15 = icmp eq ptr %14, null
  br i1 %15, label %16, label %17

16:                                               ; preds = %4
  store i32 -5, ptr %5, align 4
  store i32 1, ptr %12, align 4
  br label %35

17:                                               ; preds = %4
  %18 = load ptr, ptr %7, align 8, !tbaa !4
  %19 = load ptr, ptr %10, align 8, !tbaa !9
  %20 = getelementptr inbounds nuw %struct.st_str_end_key, ptr %19, i32 0, i32 0
  store ptr %18, ptr %20, align 8, !tbaa !17
  %21 = load ptr, ptr %8, align 8, !tbaa !4
  %22 = load ptr, ptr %10, align 8, !tbaa !9
  %23 = getelementptr inbounds nuw %struct.st_str_end_key, ptr %22, i32 0, i32 1
  store ptr %21, ptr %23, align 8, !tbaa !15
  %24 = load ptr, ptr %6, align 8, !tbaa !9
  %25 = load ptr, ptr %10, align 8, !tbaa !9
  %26 = ptrtoint ptr %25 to i64
  %27 = load i64, ptr %9, align 8, !tbaa !22
  %28 = call i32 @onig_st_insert(ptr noundef %24, i64 noundef %26, i64 noundef %27)
  store i32 %28, ptr %11, align 4, !tbaa !10
  %29 = load i32, ptr %11, align 4, !tbaa !10
  %30 = icmp ne i32 %29, 0
  br i1 %30, label %31, label %33

31:                                               ; preds = %17
  %32 = load ptr, ptr %10, align 8, !tbaa !9
  call void @free(ptr noundef %32) #8
  br label %33

33:                                               ; preds = %31, %17
  %34 = load i32, ptr %11, align 4, !tbaa !10
  store i32 %34, ptr %5, align 4
  store i32 1, ptr %12, align 4
  br label %35

35:                                               ; preds = %33, %16
  call void @llvm.lifetime.end.p0(i64 4, ptr %11) #8
  call void @llvm.lifetime.end.p0(i64 8, ptr %10) #8
  %36 = load i32, ptr %5, align 4
  ret i32 %36
}

; Function Attrs: nounwind uwtable
define dso_local void @onig_scan_env_set_error_string(ptr noundef %0, i32 noundef %1, ptr noundef %2, ptr noundef %3) #0 {
  %5 = alloca ptr, align 8
  %6 = alloca i32, align 4
  %7 = alloca ptr, align 8
  %8 = alloca ptr, align 8
  store ptr %0, ptr %5, align 8, !tbaa !9
  store i32 %1, ptr %6, align 4, !tbaa !10
  store ptr %2, ptr %7, align 8, !tbaa !4
  store ptr %3, ptr %8, align 8, !tbaa !4
  %9 = load ptr, ptr %7, align 8, !tbaa !4
  %10 = load ptr, ptr %5, align 8, !tbaa !9
  %11 = getelementptr inbounds nuw %struct.ParseEnv, ptr %10, i32 0, i32 9
  store ptr %9, ptr %11, align 8, !tbaa !168
  %12 = load ptr, ptr %8, align 8, !tbaa !4
  %13 = load ptr, ptr %5, align 8, !tbaa !9
  %14 = getelementptr inbounds nuw %struct.ParseEnv, ptr %13, i32 0, i32 10
  store ptr %12, ptr %14, align 8, !tbaa !169
  ret void
}

; Function Attrs: nounwind uwtable
define internal i64 @callout_tag_find(ptr noundef %0, ptr noundef %1, ptr noundef %2) #0 {
  %4 = alloca ptr, align 8
  %5 = alloca ptr, align 8
  %6 = alloca ptr, align 8
  %7 = alloca i64, align 8
  store ptr %0, ptr %4, align 8, !tbaa !37
  store ptr %1, ptr %5, align 8, !tbaa !4
  store ptr %2, ptr %6, align 8, !tbaa !4
  call void @llvm.lifetime.start.p0(i64 8, ptr %7) #8
  store i64 -1, ptr %7, align 8, !tbaa !22
  %8 = load ptr, ptr %4, align 8, !tbaa !37
  %9 = icmp ne ptr %8, null
  br i1 %9, label %10, label %15

10:                                               ; preds = %3
  %11 = load ptr, ptr %4, align 8, !tbaa !37
  %12 = load ptr, ptr %5, align 8, !tbaa !4
  %13 = load ptr, ptr %6, align 8, !tbaa !4
  %14 = call i32 @onig_st_lookup_strend(ptr noundef %11, ptr noundef %12, ptr noundef %13, ptr noundef %7)
  br label %15

15:                                               ; preds = %10, %3
  %16 = load i64, ptr %7, align 8, !tbaa !22
  call void @llvm.lifetime.end.p0(i64 8, ptr %7) #8
  ret i64 %16
}

; Function Attrs: nounwind uwtable
define internal i32 @callout_tag_table_new(ptr noundef %0) #0 {
  %2 = alloca i32, align 4
  %3 = alloca ptr, align 8
  %4 = alloca ptr, align 8
  %5 = alloca i32, align 4
  store ptr %0, ptr %3, align 8, !tbaa !281
  call void @llvm.lifetime.start.p0(i64 8, ptr %4) #8
  %6 = load ptr, ptr %3, align 8, !tbaa !281
  store ptr null, ptr %6, align 8, !tbaa !37
  %7 = call ptr @onig_st_init_strend_table_with_size(i32 noundef 5)
  store ptr %7, ptr %4, align 8, !tbaa !37
  %8 = load ptr, ptr %4, align 8, !tbaa !37
  %9 = icmp eq ptr %8, null
  br i1 %9, label %10, label %11

10:                                               ; preds = %1
  store i32 -5, ptr %2, align 4
  store i32 1, ptr %5, align 4
  br label %14

11:                                               ; preds = %1
  %12 = load ptr, ptr %4, align 8, !tbaa !37
  %13 = load ptr, ptr %3, align 8, !tbaa !281
  store ptr %12, ptr %13, align 8, !tbaa !37
  store i32 0, ptr %2, align 4
  store i32 1, ptr %5, align 4
  br label %14

14:                                               ; preds = %11, %10
  call void @llvm.lifetime.end.p0(i64 8, ptr %4) #8
  %15 = load i32, ptr %2, align 4
  ret i32 %15
}

; Function Attrs: nounwind uwtable
define dso_local ptr @onig_reg_callout_list_at(ptr noundef %0, i32 noundef %1) #0 {
  %3 = alloca ptr, align 8
  %4 = alloca ptr, align 8
  %5 = alloca i32, align 4
  %6 = alloca ptr, align 8
  %7 = alloca i32, align 4
  store ptr %0, ptr %4, align 8, !tbaa !33
  store i32 %1, ptr %5, align 4, !tbaa !10
  call void @llvm.lifetime.start.p0(i64 8, ptr %6) #8
  %8 = load ptr, ptr %4, align 8, !tbaa !33
  %9 = getelementptr inbounds nuw %struct.re_pattern_buffer, ptr %8, i32 0, i32 34
  %10 = load ptr, ptr %9, align 8, !tbaa !101
  store ptr %10, ptr %6, align 8, !tbaa !9
  %11 = load ptr, ptr %6, align 8, !tbaa !9
  %12 = icmp eq ptr %11, null
  br i1 %12, label %13, label %14

13:                                               ; preds = %2
  store ptr null, ptr %3, align 8
  store i32 1, ptr %7, align 4
  br label %33

14:                                               ; preds = %2
  %15 = load i32, ptr %5, align 4, !tbaa !10
  %16 = icmp sle i32 %15, 0
  br i1 %16, label %23, label %17

17:                                               ; preds = %14
  %18 = load i32, ptr %5, align 4, !tbaa !10
  %19 = load ptr, ptr %6, align 8, !tbaa !9
  %20 = getelementptr inbounds nuw %struct.RegexExt, ptr %19, i32 0, i32 3
  %21 = load i32, ptr %20, align 8, !tbaa !102
  %22 = icmp sgt i32 %18, %21
  br i1 %22, label %23, label %24

23:                                               ; preds = %17, %14
  store ptr null, ptr %3, align 8
  store i32 1, ptr %7, align 4
  br label %33

24:                                               ; preds = %17
  %25 = load i32, ptr %5, align 4, !tbaa !10
  %26 = add nsw i32 %25, -1
  store i32 %26, ptr %5, align 4, !tbaa !10
  %27 = load ptr, ptr %6, align 8, !tbaa !9
  %28 = getelementptr inbounds nuw %struct.RegexExt, ptr %27, i32 0, i32 5
  %29 = load ptr, ptr %28, align 8, !tbaa !104
  %30 = load i32, ptr %5, align 4, !tbaa !10
  %31 = sext i32 %30 to i64
  %32 = getelementptr inbounds %struct.CalloutListEntry, ptr %29, i64 %31
  store ptr %32, ptr %3, align 8
  store i32 1, ptr %7, align 4
  br label %33

33:                                               ; preds = %24, %23, %13
  call void @llvm.lifetime.end.p0(i64 8, ptr %6) #8
  %34 = load ptr, ptr %3, align 8
  ret ptr %34
}

; Function Attrs: nounwind uwtable
define internal i32 @callout_tag_entry_raw(ptr noundef %0, ptr noundef %1, ptr noundef %2, ptr noundef %3, i64 noundef %4) #0 {
  %6 = alloca i32, align 4
  %7 = alloca ptr, align 8
  %8 = alloca ptr, align 8
  %9 = alloca ptr, align 8
  %10 = alloca ptr, align 8
  %11 = alloca i64, align 8
  %12 = alloca i32, align 4
  %13 = alloca i64, align 8
  %14 = alloca i32, align 4
  store ptr %0, ptr %7, align 8, !tbaa !9
  store ptr %1, ptr %8, align 8, !tbaa !37
  store ptr %2, ptr %9, align 8, !tbaa !4
  store ptr %3, ptr %10, align 8, !tbaa !4
  store i64 %4, ptr %11, align 8, !tbaa !22
  call void @llvm.lifetime.start.p0(i64 4, ptr %12) #8
  call void @llvm.lifetime.start.p0(i64 8, ptr %13) #8
  %15 = load ptr, ptr %10, align 8, !tbaa !4
  %16 = load ptr, ptr %9, align 8, !tbaa !4
  %17 = ptrtoint ptr %15 to i64
  %18 = ptrtoint ptr %16 to i64
  %19 = sub i64 %17, %18
  %20 = icmp sle i64 %19, 0
  br i1 %20, label %21, label %22

21:                                               ; preds = %5
  store i32 -231, ptr %6, align 4
  store i32 1, ptr %14, align 4
  br label %44

22:                                               ; preds = %5
  %23 = load ptr, ptr %8, align 8, !tbaa !37
  %24 = load ptr, ptr %9, align 8, !tbaa !4
  %25 = load ptr, ptr %10, align 8, !tbaa !4
  %26 = call i64 @callout_tag_find(ptr noundef %23, ptr noundef %24, ptr noundef %25)
  store i64 %26, ptr %13, align 8, !tbaa !22
  %27 = load i64, ptr %13, align 8, !tbaa !22
  %28 = icmp sge i64 %27, 0
  br i1 %28, label %29, label %33

29:                                               ; preds = %22
  %30 = load ptr, ptr %7, align 8, !tbaa !9
  %31 = load ptr, ptr %9, align 8, !tbaa !4
  %32 = load ptr, ptr %10, align 8, !tbaa !4
  call void @onig_scan_env_set_error_string(ptr noundef %30, i32 noundef -219, ptr noundef %31, ptr noundef %32)
  store i32 -219, ptr %6, align 4
  store i32 1, ptr %14, align 4
  br label %44

33:                                               ; preds = %22
  %34 = load ptr, ptr %8, align 8, !tbaa !37
  %35 = load ptr, ptr %9, align 8, !tbaa !4
  %36 = load ptr, ptr %10, align 8, !tbaa !4
  %37 = load i64, ptr %11, align 8, !tbaa !22
  %38 = call i32 @onig_st_insert_strend(ptr noundef %34, ptr noundef %35, ptr noundef %36, i64 noundef %37)
  store i32 %38, ptr %12, align 4, !tbaa !10
  %39 = load i32, ptr %12, align 4, !tbaa !10
  %40 = icmp slt i32 %39, 0
  br i1 %40, label %41, label %43

41:                                               ; preds = %33
  %42 = load i32, ptr %12, align 4, !tbaa !10
  store i32 %42, ptr %6, align 4
  store i32 1, ptr %14, align 4
  br label %44

43:                                               ; preds = %33
  store i32 0, ptr %6, align 4
  store i32 1, ptr %14, align 4
  br label %44

44:                                               ; preds = %43, %41, %29, %21
  call void @llvm.lifetime.end.p0(i64 8, ptr %13) #8
  call void @llvm.lifetime.end.p0(i64 4, ptr %12) #8
  %45 = load i32, ptr %6, align 4
  ret i32 %45
}

; Function Attrs: nounwind uwtable
define internal i32 @ext_ensure_tag_table(ptr noundef %0) #0 {
  %2 = alloca i32, align 4
  %3 = alloca ptr, align 8
  %4 = alloca i32, align 4
  %5 = alloca ptr, align 8
  %6 = alloca ptr, align 8
  %7 = alloca i32, align 4
  store ptr %0, ptr %3, align 8, !tbaa !33
  call void @llvm.lifetime.start.p0(i64 4, ptr %4) #8
  call void @llvm.lifetime.start.p0(i64 8, ptr %5) #8
  call void @llvm.lifetime.start.p0(i64 8, ptr %6) #8
  %8 = load ptr, ptr %3, align 8, !tbaa !33
  %9 = call ptr @onig_get_regex_ext(ptr noundef %8)
  store ptr %9, ptr %5, align 8, !tbaa !9
  %10 = load ptr, ptr %5, align 8, !tbaa !9
  %11 = icmp eq ptr %10, null
  br i1 %11, label %12, label %13

12:                                               ; preds = %1
  store i32 -5, ptr %2, align 4
  store i32 1, ptr %7, align 4
  br label %29

13:                                               ; preds = %1
  %14 = load ptr, ptr %5, align 8, !tbaa !9
  %15 = getelementptr inbounds nuw %struct.RegexExt, ptr %14, i32 0, i32 2
  %16 = load ptr, ptr %15, align 8, !tbaa !110
  %17 = icmp eq ptr %16, null
  br i1 %17, label %18, label %28

18:                                               ; preds = %13
  %19 = call i32 @callout_tag_table_new(ptr noundef %6)
  store i32 %19, ptr %4, align 4, !tbaa !10
  %20 = load i32, ptr %4, align 4, !tbaa !10
  %21 = icmp ne i32 %20, 0
  br i1 %21, label %22, label %24

22:                                               ; preds = %18
  %23 = load i32, ptr %4, align 4, !tbaa !10
  store i32 %23, ptr %2, align 4
  store i32 1, ptr %7, align 4
  br label %29

24:                                               ; preds = %18
  %25 = load ptr, ptr %6, align 8, !tbaa !37
  %26 = load ptr, ptr %5, align 8, !tbaa !9
  %27 = getelementptr inbounds nuw %struct.RegexExt, ptr %26, i32 0, i32 2
  store ptr %25, ptr %27, align 8, !tbaa !110
  br label %28

28:                                               ; preds = %24, %13
  store i32 0, ptr %2, align 4
  store i32 1, ptr %7, align 4
  br label %29

29:                                               ; preds = %28, %22, %12
  call void @llvm.lifetime.end.p0(i64 8, ptr %6) #8
  call void @llvm.lifetime.end.p0(i64 8, ptr %5) #8
  call void @llvm.lifetime.end.p0(i64 4, ptr %4) #8
  %30 = load i32, ptr %2, align 4
  ret i32 %30
}

; Function Attrs: nounwind uwtable
define internal i32 @callout_tag_entry(ptr noundef %0, ptr noundef %1, ptr noundef %2, ptr noundef %3, i64 noundef %4) #0 {
  %6 = alloca i32, align 4
  %7 = alloca ptr, align 8
  %8 = alloca ptr, align 8
  %9 = alloca ptr, align 8
  %10 = alloca ptr, align 8
  %11 = alloca i64, align 8
  %12 = alloca i32, align 4
  %13 = alloca ptr, align 8
  %14 = alloca ptr, align 8
  %15 = alloca i32, align 4
  store ptr %0, ptr %7, align 8, !tbaa !9
  store ptr %1, ptr %8, align 8, !tbaa !33
  store ptr %2, ptr %9, align 8, !tbaa !4
  store ptr %3, ptr %10, align 8, !tbaa !4
  store i64 %4, ptr %11, align 8, !tbaa !22
  call void @llvm.lifetime.start.p0(i64 4, ptr %12) #8
  call void @llvm.lifetime.start.p0(i64 8, ptr %13) #8
  call void @llvm.lifetime.start.p0(i64 8, ptr %14) #8
  %16 = load ptr, ptr %8, align 8, !tbaa !33
  %17 = call i32 @ext_ensure_tag_table(ptr noundef %16)
  store i32 %17, ptr %12, align 4, !tbaa !10
  %18 = load i32, ptr %12, align 4, !tbaa !10
  %19 = icmp ne i32 %18, 0
  br i1 %19, label %20, label %22

20:                                               ; preds = %5
  %21 = load i32, ptr %12, align 4, !tbaa !10
  store i32 %21, ptr %6, align 4
  store i32 1, ptr %15, align 4
  br label %52

22:                                               ; preds = %5
  %23 = load ptr, ptr %8, align 8, !tbaa !33
  %24 = call ptr @onig_get_regex_ext(ptr noundef %23)
  store ptr %24, ptr %13, align 8, !tbaa !9
  %25 = load ptr, ptr %13, align 8, !tbaa !9
  %26 = icmp eq ptr %25, null
  br i1 %26, label %27, label %28

27:                                               ; preds = %22
  store i32 -5, ptr %6, align 4
  store i32 1, ptr %15, align 4
  br label %52

28:                                               ; preds = %22
  %29 = load ptr, ptr %7, align 8, !tbaa !9
  %30 = load ptr, ptr %13, align 8, !tbaa !9
  %31 = getelementptr inbounds nuw %struct.RegexExt, ptr %30, i32 0, i32 2
  %32 = load ptr, ptr %31, align 8, !tbaa !110
  %33 = load ptr, ptr %9, align 8, !tbaa !4
  %34 = load ptr, ptr %10, align 8, !tbaa !4
  %35 = load i64, ptr %11, align 8, !tbaa !22
  %36 = call i32 @callout_tag_entry_raw(ptr noundef %29, ptr noundef %32, ptr noundef %33, ptr noundef %34, i64 noundef %35)
  store i32 %36, ptr %12, align 4, !tbaa !10
  %37 = load ptr, ptr %8, align 8, !tbaa !33
  %38 = load i64, ptr %11, align 8, !tbaa !22
  %39 = trunc i64 %38 to i32
  %40 = call ptr @onig_reg_callout_list_at(ptr noundef %37, i32 noundef %39)
  store ptr %40, ptr %14, align 8, !tbaa !9
  %41 = load ptr, ptr %14, align 8, !tbaa !9
  %42 = icmp eq ptr %41, null
  br i1 %42, label %43, label %44

43:                                               ; preds = %28
  store i32 -5, ptr %6, align 4
  store i32 1, ptr %15, align 4
  br label %52

44:                                               ; preds = %28
  %45 = load ptr, ptr %9, align 8, !tbaa !4
  %46 = load ptr, ptr %14, align 8, !tbaa !9
  %47 = getelementptr inbounds nuw %struct.CalloutListEntry, ptr %46, i32 0, i32 4
  store ptr %45, ptr %47, align 8, !tbaa !105
  %48 = load ptr, ptr %10, align 8, !tbaa !4
  %49 = load ptr, ptr %14, align 8, !tbaa !9
  %50 = getelementptr inbounds nuw %struct.CalloutListEntry, ptr %49, i32 0, i32 5
  store ptr %48, ptr %50, align 8, !tbaa !106
  %51 = load i32, ptr %12, align 4, !tbaa !10
  store i32 %51, ptr %6, align 4
  store i32 1, ptr %15, align 4
  br label %52

52:                                               ; preds = %44, %43, %27, %20
  call void @llvm.lifetime.end.p0(i64 8, ptr %14) #8
  call void @llvm.lifetime.end.p0(i64 8, ptr %13) #8
  call void @llvm.lifetime.end.p0(i64 4, ptr %12) #8
  %53 = load i32, ptr %6, align 4
  ret i32 %53
}