; Function Attrs: nounwind uwtable
define internal fastcc range(i32 -2147483648, 1) i32 @callout_tag_entry(ptr noundef writeonly captures(none) %0, ptr noundef %1, ptr noundef %2, ptr noundef %3, i64 noundef range(i64 -2147483648, 2147483648) %4) unnamed_addr #2 {
  %6 = alloca %struct.st_str_end_key, align 8
  %7 = alloca i64, align 8
  %8 = tail call ptr @onig_get_regex_ext(ptr noundef %1) #25
  %9 = icmp eq ptr %8, null
  br i1 %9, label %ext_ensure_tag_table.exit, label %10

10:                                               ; preds = %5
  %11 = getelementptr inbounds nuw i8, ptr %8, i64 16
  %12 = load ptr, ptr %11, align 8, !tbaa !100
  %13 = icmp eq ptr %12, null
  br i1 %13, label %14, label %18

14:                                               ; preds = %10
  %15 = tail call ptr @onig_st_init_table_with_size(ptr noundef nonnull @onig_st_init_strend_table_with_size.hashType, i32 noundef 5) #25
  %16 = icmp eq ptr %15, null
  br i1 %16, label %ext_ensure_tag_table.exit, label %17

17:                                               ; preds = %14
  store ptr %15, ptr %11, align 8, !tbaa !100
  br label %18

18:                                               ; preds = %17, %10
  %19 = tail call ptr @onig_get_regex_ext(ptr noundef %1) #25
  %20 = icmp eq ptr %19, null
  br i1 %20, label %ext_ensure_tag_table.exit, label %21

21:                                               ; preds = %18
  %22 = getelementptr inbounds nuw i8, ptr %19, i64 16
  %23 = load ptr, ptr %22, align 8, !tbaa !100
  %24 = ptrtoint ptr %3 to i64
  %25 = ptrtoint ptr %2 to i64
  %26 = sub i64 %24, %25
  %27 = icmp slt i64 %26, 1
  br i1 %27, label %callout_tag_entry_raw.exit, label %28

28:                                               ; preds = %21
  call void @llvm.lifetime.start.p0(i64 8, ptr nonnull %7) #25
  store i64 -1, ptr %7, align 8, !tbaa !101
  %.not.i.i = icmp eq ptr %23, null
  br i1 %.not.i.i, label %callout_tag_find.exit.thread.i, label %callout_tag_find.exit.i

callout_tag_find.exit.thread.i:                   ; preds = %28
  call void @llvm.lifetime.end.p0(i64 8, ptr nonnull %7) #25
  br label %36

callout_tag_find.exit.i:                          ; preds = %28
  call void @llvm.lifetime.start.p0(i64 16, ptr nonnull %6) #25
  store ptr %2, ptr %6, align 8, !tbaa !16
  %29 = getelementptr inbounds nuw i8, ptr %6, i64 8
  store ptr %3, ptr %29, align 8, !tbaa !13
  %30 = ptrtoint ptr %6 to i64
  %31 = call i32 @onig_st_lookup(ptr noundef nonnull %23, i64 noundef %30, ptr noundef nonnull %7) #25
  call void @llvm.lifetime.end.p0(i64 16, ptr nonnull %6) #25
  %.pre.i.i = load i64, ptr %7, align 8, !tbaa !101
  call void @llvm.lifetime.end.p0(i64 8, ptr nonnull %7) #25
  %32 = icmp sgt i64 %.pre.i.i, -1
  br i1 %32, label %33, label %36

33:                                               ; preds = %callout_tag_find.exit.i
  %34 = getelementptr inbounds nuw i8, ptr %0, i64 56
  store ptr %2, ptr %34, align 8, !tbaa !160
  %35 = getelementptr inbounds nuw i8, ptr %0, i64 64
  store ptr %3, ptr %35, align 8, !tbaa !161
  br label %callout_tag_entry_raw.exit

36:                                               ; preds = %callout_tag_find.exit.i, %callout_tag_find.exit.thread.i
  %37 = call noalias dereferenceable_or_null(16) ptr @malloc(i64 noundef 16) #26
  %38 = icmp eq ptr %37, null
  br i1 %38, label %callout_tag_entry_raw.exit, label %39

39:                                               ; preds = %36
  store ptr %2, ptr %37, align 8, !tbaa !16
  %40 = getelementptr inbounds nuw i8, ptr %37, i64 8
  store ptr %3, ptr %40, align 8, !tbaa !13
  %41 = ptrtoint ptr %37 to i64
  %42 = call i32 @onig_st_insert(ptr noundef %23, i64 noundef %41, i64 noundef range(i64 -2147483648, 2147483648) %4) #25
  %.fr.i = freeze i32 %42
  %.not.i16.i = icmp eq i32 %.fr.i, 0
  br i1 %.not.i16.i, label %callout_tag_entry_raw.exit, label %onig_st_insert_strend.exit.i

onig_st_insert_strend.exit.i:                     ; preds = %39
  call void @free(ptr noundef nonnull %37) #25
  %spec.select.i = call i32 @llvm.smin.i32(i32 %.fr.i, i32 0)
  br label %callout_tag_entry_raw.exit

callout_tag_entry_raw.exit:                       ; preds = %21, %33, %36, %39, %onig_st_insert_strend.exit.i
  %.0.i21 = phi i32 [ -219, %33 ], [ -231, %21 ], [ -5, %36 ], [ 0, %39 ], [ %spec.select.i, %onig_st_insert_strend.exit.i ]
  %43 = getelementptr inbounds nuw i8, ptr %1, i64 448
  %44 = load ptr, ptr %43, align 8, !tbaa !89
  %45 = icmp eq ptr %44, null
  %46 = icmp slt i64 %4, 1
  %or.cond.i = or i1 %46, %45
  br i1 %or.cond.i, label %ext_ensure_tag_table.exit, label %47

47:                                               ; preds = %callout_tag_entry_raw.exit
  %48 = trunc nsw i64 %4 to i32
  %49 = getelementptr inbounds nuw i8, ptr %44, i64 24
  %50 = load i32, ptr %49, align 8, !tbaa !90
  %51 = icmp slt i32 %50, %48
  br i1 %51, label %ext_ensure_tag_table.exit, label %onig_reg_callout_list_at.exit

onig_reg_callout_list_at.exit:                    ; preds = %47
  %52 = getelementptr inbounds nuw i8, ptr %44, i64 32
  %53 = load ptr, ptr %52, align 8, !tbaa !92
  %54 = getelementptr %struct.CalloutListEntry, ptr %53, i64 %4
  %55 = getelementptr i8, ptr %54, i64 -144
  %56 = icmp eq ptr %55, null
  br i1 %56, label %ext_ensure_tag_table.exit, label %57

57:                                               ; preds = %onig_reg_callout_list_at.exit
  %58 = getelementptr i8, ptr %54, i64 -128
  store ptr %2, ptr %58, align 8, !tbaa !95
  %59 = getelementptr i8, ptr %54, i64 -120
  store ptr %3, ptr %59, align 8, !tbaa !96
  br label %ext_ensure_tag_table.exit

ext_ensure_tag_table.exit:                        ; preds = %47, %callout_tag_entry_raw.exit, %14, %5, %onig_reg_callout_list_at.exit, %18, %57
  %.0 = phi i32 [ %.0.i21, %57 ], [ -5, %18 ], [ -5, %onig_reg_callout_list_at.exit ], [ -5, %5 ], [ -5, %14 ], [ -5, %callout_tag_entry_raw.exit ], [ -5, %47 ]
  ret i32 %.0
}